; ModuleID = '17/713.c'
source_filename = "17/713.c"
target datalayout = "e-m:e-p270:32:32-p271:32:32-p272:64:64-i64:64-f80:128-n8:16:32:64-S128"
target triple = "x86_64-pc-linux-gnu"

%struct._IO_FILE = type { i32, i8*, i8*, i8*, i8*, i8*, i8*, i8*, i8*, i8*, i8*, i8*, %struct._IO_marker*, %struct._IO_FILE*, i32, i32, i64, i16, i8, [1 x i8], i8*, i64, %struct._IO_codecvt*, %struct._IO_wide_data*, %struct._IO_FILE*, i8*, i64, i32, [20 x i8] }
%struct._IO_marker = type opaque
%struct._IO_codecvt = type opaque
%struct._IO_wide_data = type opaque

@stdin = external dso_local global %struct._IO_FILE*, align 8
@.str = private unnamed_addr constant [3 x i8] c"%c\00", align 1
@.str.1 = private unnamed_addr constant [2 x i8] c"\0A\00", align 1

; Function Attrs: noinline nounwind uwtable
define dso_local i32 @main() #0 {
  %1 = alloca i32, align 4
  %2 = alloca [201 x i8], align 16
  %3 = alloca [201 x i8], align 16
  %4 = alloca [201 x i32], align 16
  %5 = alloca i32, align 4
  %6 = alloca i32, align 4
  %7 = alloca i32, align 4
  %8 = alloca i32, align 4
  store i32 0, i32* %1, align 4
  br label %9

9:                                                ; preds = %172, %0
  %10 = bitcast [201 x i32]* %4 to i8*
  call void @llvm.memset.p0i8.i64(i8* align 16 %10, i8 0, i64 804, i1 false)
  %11 = getelementptr inbounds [201 x i8], [201 x i8]* %2, i64 0, i64 0
  %12 = call i32 (i8*, ...) bitcast (i32 (...)* @gets to i32 (i8*, ...)*)(i8* %11)
  %13 = load %struct._IO_FILE*, %struct._IO_FILE** @stdin, align 8
  %14 = call i32 @feof(%struct._IO_FILE* %13) #5
  %15 = icmp ne i32 %14, 0
  br i1 %15, label %16, label %17

16:                                               ; preds = %9
  br label %174

17:                                               ; preds = %9
  %18 = getelementptr inbounds [201 x i8], [201 x i8]* %2, i64 0, i64 0
  %19 = call i64 @strlen(i8* %18) #6
  %20 = trunc i64 %19 to i32
  store i32 %20, i32* %7, align 4
  store i32 0, i32* %5, align 4
  br label %21

21:                                               ; preds = %52, %17
  %22 = load i32, i32* %5, align 4
  %23 = load i32, i32* %7, align 4
  %24 = icmp slt i32 %22, %23
  br i1 %24, label %25, label %55

25:                                               ; preds = %21
  %26 = load i32, i32* %5, align 4
  %27 = sext i32 %26 to i64
  %28 = getelementptr inbounds [201 x i8], [201 x i8]* %3, i64 0, i64 %27
  store i8 32, i8* %28, align 1
  %29 = load i32, i32* %5, align 4
  %30 = sext i32 %29 to i64
  %31 = getelementptr inbounds [201 x i8], [201 x i8]* %2, i64 0, i64 %30
  %32 = load i8, i8* %31, align 1
  %33 = sext i8 %32 to i32
  %34 = icmp eq i32 %33, 40
  br i1 %34, label %35, label %39

35:                                               ; preds = %25
  %36 = load i32, i32* %5, align 4
  %37 = sext i32 %36 to i64
  %38 = getelementptr inbounds [201 x i32], [201 x i32]* %4, i64 0, i64 %37
  store i32 1, i32* %38, align 4
  br label %51

39:                                               ; preds = %25
  %40 = load i32, i32* %5, align 4
  %41 = sext i32 %40 to i64
  %42 = getelementptr inbounds [201 x i8], [201 x i8]* %2, i64 0, i64 %41
  %43 = load i8, i8* %42, align 1
  %44 = sext i8 %43 to i32
  %45 = icmp eq i32 %44, 41
  br i1 %45, label %46, label %50

46:                                               ; preds = %39
  %47 = load i32, i32* %5, align 4
  %48 = sext i32 %47 to i64
  %49 = getelementptr inbounds [201 x i32], [201 x i32]* %4, i64 0, i64 %48
  store i32 -1, i32* %49, align 4
  br label %50

50:                                               ; preds = %46, %39
  br label %51

51:                                               ; preds = %50, %35
  br label %52

52:                                               ; preds = %51
  %53 = load i32, i32* %5, align 4
  %54 = add nsw i32 %53, 1
  store i32 %54, i32* %5, align 4
  br label %21

55:                                               ; preds = %21
  store i32 0, i32* %5, align 4
  br label %56

56:                                               ; preds = %95, %55
  %57 = load i32, i32* %5, align 4
  %58 = load i32, i32* %7, align 4
  %59 = icmp slt i32 %57, %58
  br i1 %59, label %60, label %98

60:                                               ; preds = %56
  store i32 0, i32* %8, align 4
  %61 = load i32, i32* %5, align 4
  %62 = sext i32 %61 to i64
  %63 = getelementptr inbounds [201 x i32], [201 x i32]* %4, i64 0, i64 %62
  %64 = load i32, i32* %63, align 4
  %65 = icmp ne i32 %64, 1
  br i1 %65, label %66, label %67

66:                                               ; preds = %60
  br label %95

67:                                               ; preds = %60
  %68 = load i32, i32* %5, align 4
  store i32 %68, i32* %6, align 4
  br label %69

69:                                               ; preds = %84, %67
  %70 = load i32, i32* %6, align 4
  %71 = load i32, i32* %7, align 4
  %72 = icmp slt i32 %70, %71
  br i1 %72, label %73, label %87

73:                                               ; preds = %69
  %74 = load i32, i32* %8, align 4
  %75 = load i32, i32* %6, align 4
  %76 = sext i32 %75 to i64
  %77 = getelementptr inbounds [201 x i32], [201 x i32]* %4, i64 0, i64 %76
  %78 = load i32, i32* %77, align 4
  %79 = add nsw i32 %74, %78
  store i32 %79, i32* %8, align 4
  %80 = load i32, i32* %8, align 4
  %81 = icmp eq i32 %80, 0
  br i1 %81, label %82, label %83

82:                                               ; preds = %73
  br label %87

83:                                               ; preds = %73
  br label %84

84:                                               ; preds = %83
  %85 = load i32, i32* %6, align 4
  %86 = add nsw i32 %85, 1
  store i32 %86, i32* %6, align 4
  br label %69

87:                                               ; preds = %82, %69
  %88 = load i32, i32* %8, align 4
  %89 = icmp ne i32 %88, 0
  br i1 %89, label %90, label %94

90:                                               ; preds = %87
  %91 = load i32, i32* %5, align 4
  %92 = sext i32 %91 to i64
  %93 = getelementptr inbounds [201 x i8], [201 x i8]* %3, i64 0, i64 %92
  store i8 36, i8* %93, align 1
  br label %94

94:                                               ; preds = %90, %87
  br label %95

95:                                               ; preds = %94, %66
  %96 = load i32, i32* %5, align 4
  %97 = add nsw i32 %96, 1
  store i32 %97, i32* %5, align 4
  br label %56

98:                                               ; preds = %56
  %99 = load i32, i32* %7, align 4
  %100 = sub nsw i32 %99, 1
  store i32 %100, i32* %5, align 4
  br label %101

101:                                              ; preds = %138, %98
  %102 = load i32, i32* %5, align 4
  %103 = icmp sge i32 %102, 0
  br i1 %103, label %104, label %141

104:                                              ; preds = %101
  store i32 0, i32* %8, align 4
  %105 = load i32, i32* %5, align 4
  %106 = sext i32 %105 to i64
  %107 = getelementptr inbounds [201 x i32], [201 x i32]* %4, i64 0, i64 %106
  %108 = load i32, i32* %107, align 4
  %109 = icmp ne i32 %108, -1
  br i1 %109, label %110, label %111

110:                                              ; preds = %104
  br label %138

111:                                              ; preds = %104
  %112 = load i32, i32* %5, align 4
  store i32 %112, i32* %6, align 4
  br label %113

113:                                              ; preds = %127, %111
  %114 = load i32, i32* %6, align 4
  %115 = icmp sge i32 %114, 0
  br i1 %115, label %116, label %130

116:                                              ; preds = %113
  %117 = load i32, i32* %8, align 4
  %118 = load i32, i32* %6, align 4
  %119 = sext i32 %118 to i64
  %120 = getelementptr inbounds [201 x i32], [201 x i32]* %4, i64 0, i64 %119
  %121 = load i32, i32* %120, align 4
  %122 = add nsw i32 %117, %121
  store i32 %122, i32* %8, align 4
  %123 = load i32, i32* %8, align 4
  %124 = icmp eq i32 %123, 0
  br i1 %124, label %125, label %126

125:                                              ; preds = %116
  br label %130

126:                                              ; preds = %116
  br label %127

127:                                              ; preds = %126
  %128 = load i32, i32* %6, align 4
  %129 = add nsw i32 %128, -1
  store i32 %129, i32* %6, align 4
  br label %113

130:                                              ; preds = %125, %113
  %131 = load i32, i32* %8, align 4
  %132 = icmp ne i32 %131, 0
  br i1 %132, label %133, label %137

133:                                              ; preds = %130
  %134 = load i32, i32* %5, align 4
  %135 = sext i32 %134 to i64
  %136 = getelementptr inbounds [201 x i8], [201 x i8]* %3, i64 0, i64 %135
  store i8 63, i8* %136, align 1
  br label %137

137:                                              ; preds = %133, %130
  br label %138

138:                                              ; preds = %137, %110
  %139 = load i32, i32* %5, align 4
  %140 = add nsw i32 %139, -1
  store i32 %140, i32* %5, align 4
  br label %101

141:                                              ; preds = %101
  store i32 0, i32* %5, align 4
  br label %142

142:                                              ; preds = %153, %141
  %143 = load i32, i32* %5, align 4
  %144 = load i32, i32* %7, align 4
  %145 = icmp slt i32 %143, %144
  br i1 %145, label %146, label %156

146:                                              ; preds = %142
  %147 = load i32, i32* %5, align 4
  %148 = sext i32 %147 to i64
  %149 = getelementptr inbounds [201 x i8], [201 x i8]* %2, i64 0, i64 %148
  %150 = load i8, i8* %149, align 1
  %151 = sext i8 %150 to i32
  %152 = call i32 (i8*, ...) @printf(i8* getelementptr inbounds ([3 x i8], [3 x i8]* @.str, i64 0, i64 0), i32 %151)
  br label %153

153:                                              ; preds = %146
  %154 = load i32, i32* %5, align 4
  %155 = add nsw i32 %154, 1
  store i32 %155, i32* %5, align 4
  br label %142

156:                                              ; preds = %142
  %157 = call i32 (i8*, ...) @printf(i8* getelementptr inbounds ([2 x i8], [2 x i8]* @.str.1, i64 0, i64 0))
  store i32 0, i32* %5, align 4
  br label %158

158:                                              ; preds = %169, %156
  %159 = load i32, i32* %5, align 4
  %160 = load i32, i32* %7, align 4
  %161 = icmp slt i32 %159, %160
  br i1 %161, label %162, label %172

162:                                              ; preds = %158
  %163 = load i32, i32* %5, align 4
  %164 = sext i32 %163 to i64
  %165 = getelementptr inbounds [201 x i8], [201 x i8]* %3, i64 0, i64 %164
  %166 = load i8, i8* %165, align 1
  %167 = sext i8 %166 to i32
  %168 = call i32 (i8*, ...) @printf(i8* getelementptr inbounds ([3 x i8], [3 x i8]* @.str, i64 0, i64 0), i32 %167)
  br label %169

169:                                              ; preds = %162
  %170 = load i32, i32* %5, align 4
  %171 = add nsw i32 %170, 1
  store i32 %171, i32* %5, align 4
  br label %158

172:                                              ; preds = %158
  %173 = call i32 (i8*, ...) @printf(i8* getelementptr inbounds ([2 x i8], [2 x i8]* @.str.1, i64 0, i64 0))
  br label %9

174:                                              ; preds = %16
  %175 = load i32, i32* %1, align 4
  ret i32 %175
}

; Function Attrs: argmemonly nounwind willreturn
declare void @llvm.memset.p0i8.i64(i8* nocapture writeonly, i8, i64, i1 immarg) #1

declare dso_local i32 @gets(...) #2

; Function Attrs: nounwind
declare dso_local i32 @feof(%struct._IO_FILE*) #3

; Function Attrs: nounwind readonly
declare dso_local i64 @strlen(i8*) #4

declare dso_local i32 @printf(i8*, ...) #2


!llvm.module.flags = !{!0}
!llvm.ident = !{!1}

!0 = !{i32 1, !"wchar_size", i32 4}
!1 = !{!"clang version 10.0.0-4ubuntu1 "}
